target datalayout = "e-m:e-p270:32:32-p271:32:32-p272:64:64-i64:64-i128:128-f80:128-n8:16:32:64-S128"
target triple = "x86_64-pc-linux-gnu"

%struct.ident_t = type { i32, i32, i32, i32, ptr }
%"class.LightGBM::RegressionL2loss" = type <{ %"class.LightGBM::ObjectiveFunction", i8, [3 x i8], i32, ptr, ptr, %"class.std::vector", i8, [7 x i8] }>
%"class.LightGBM::ObjectiveFunction" = type { ptr }
%"class.std::vector" = type { %"struct.std::_Vector_base" }
%"struct.std::_Vector_base" = type { %"struct.std::_Vector_base<float, std::allocator<float>>::_Vector_impl" }
%"struct.std::_Vector_base<float, std::allocator<float>>::_Vector_impl" = type { %"struct.std::_Vector_base<float, std::allocator<float>>::_Vector_impl_data" }
%"struct.std::_Vector_base<float, std::allocator<float>>::_Vector_impl_data" = type { ptr, ptr, ptr }
%"class.LightGBM::RegressionQuantileloss" = type { %"class.LightGBM::RegressionL2loss.base", float }
%"class.LightGBM::RegressionL2loss.base" = type <{ %"class.LightGBM::ObjectiveFunction", i8, [3 x i8], i32, ptr, ptr, %"class.std::vector", i8 }>

@1 = private unnamed_addr constant %struct.ident_t { i32 0, i32 514, i32 0, i32 22, ptr @0 }, align 8

; Function Attrs: alwaysinline norecurse nounwind uwtable
define internal void @_ZNK8LightGBM22RegressionQuantileloss12GetGradientsEPKdPfS3_.omp_outlined.34(ptr noalias noundef %0, ptr noalias noundef %1, ptr noundef %2, ptr noundef nonnull align 8 dereferenceable(8) %3, ptr noundef nonnull align 8 dereferenceable(8) %4, ptr noundef nonnull align 8 dereferenceable(8) %5) #16 {
  %7 = alloca ptr, align 8
  %8 = alloca ptr, align 8
  %9 = alloca ptr, align 8
  %10 = alloca ptr, align 8
  %11 = alloca ptr, align 8
  %12 = alloca ptr, align 8
  %13 = alloca i32, align 4
  %14 = alloca i32, align 4
  %15 = alloca i32, align 4
  %16 = alloca i32, align 4
  %17 = alloca i32, align 4
  %18 = alloca i32, align 4
  %19 = alloca i32, align 4
  %20 = alloca i32, align 4
  %21 = alloca i32, align 4
  %22 = alloca float, align 4
  store ptr %0, ptr %7, align 8, !tbaa !193
  store ptr %1, ptr %8, align 8, !tbaa !193
  store ptr %2, ptr %9, align 8, !tbaa !72
  store ptr %3, ptr %10, align 8, !tbaa !224
  store ptr %4, ptr %11, align 8, !tbaa !216
  store ptr %5, ptr %12, align 8, !tbaa !216
  %23 = load ptr, ptr %9, align 8, !tbaa !72
  %24 = load ptr, ptr %10, align 8, !tbaa !224
  %25 = load ptr, ptr %11, align 8, !tbaa !216
  %26 = load ptr, ptr %12, align 8, !tbaa !216
  call void @llvm.lifetime.start.p0(i64 4, ptr %13) #3
  call void @llvm.lifetime.start.p0(i64 4, ptr %14) #3
  %27 = getelementptr inbounds nuw %"class.LightGBM::RegressionL2loss", ptr %23, i32 0, i32 3
  %28 = load i32, ptr %27, align 4, !tbaa !188
  store i32 %28, ptr %14, align 4, !tbaa !141
  call void @llvm.lifetime.start.p0(i64 4, ptr %15) #3
  %29 = load i32, ptr %14, align 4, !tbaa !141
  %30 = sub nsw i32 %29, 0
  %31 = sdiv i32 %30, 1
  %32 = sub nsw i32 %31, 1
  store i32 %32, ptr %15, align 4, !tbaa !141
  call void @llvm.lifetime.start.p0(i64 4, ptr %16) #3
  store i32 0, ptr %16, align 4, !tbaa !141
  call void @llvm.lifetime.end.p0(i64 4, ptr %16) #3
  %33 = load i32, ptr %14, align 4, !tbaa !141
  %34 = icmp slt i32 0, %33
  br i1 %34, label %35, label %123

35:                                               ; preds = %6
  call void @llvm.lifetime.start.p0(i64 4, ptr %17) #3
  store i32 0, ptr %17, align 4, !tbaa !141
  call void @llvm.lifetime.start.p0(i64 4, ptr %18) #3
  %36 = load i32, ptr %15, align 4, !tbaa !141
  store i32 %36, ptr %18, align 4, !tbaa !141
  call void @llvm.lifetime.start.p0(i64 4, ptr %19) #3
  store i32 1, ptr %19, align 4, !tbaa !141
  call void @llvm.lifetime.start.p0(i64 4, ptr %20) #3
  store i32 0, ptr %20, align 4, !tbaa !141
  call void @llvm.lifetime.start.p0(i64 4, ptr %21) #3
  %37 = load ptr, ptr %7, align 8
  %38 = load i32, ptr %37, align 4, !tbaa !141
  call void @__kmpc_for_static_init_4(ptr @1, i32 %38, i32 34, ptr %20, ptr %17, ptr %18, ptr %19, i32 1, i32 1)
  %39 = load i32, ptr %18, align 4, !tbaa !141
  %40 = load i32, ptr %15, align 4, !tbaa !141
  %41 = icmp sgt i32 %39, %40
  br i1 %41, label %42, label %44

42:                                               ; preds = %35
  %43 = load i32, ptr %15, align 4, !tbaa !141
  br label %46

44:                                               ; preds = %35
  %45 = load i32, ptr %18, align 4, !tbaa !141
  br label %46

46:                                               ; preds = %44, %42
  %47 = phi i32 [ %43, %42 ], [ %45, %44 ]
  store i32 %47, ptr %18, align 4, !tbaa !141
  %48 = load i32, ptr %17, align 4, !tbaa !141
  store i32 %48, ptr %13, align 4, !tbaa !141
  br label %49

49:                                               ; preds = %116, %46
  %50 = load i32, ptr %13, align 4, !tbaa !141
  %51 = load i32, ptr %18, align 4, !tbaa !141
  %52 = icmp sle i32 %50, %51
  br i1 %52, label %54, label %53

53:                                               ; preds = %49
  br label %119

54:                                               ; preds = %49
  %55 = load i32, ptr %13, align 4, !tbaa !141
  %56 = mul nsw i32 %55, 1
  %57 = add nsw i32 0, %56
  store i32 %57, ptr %21, align 4, !tbaa !141
  call void @llvm.lifetime.start.p0(i64 4, ptr %22) #3
  %58 = load ptr, ptr %24, align 8, !tbaa !191
  %59 = load i32, ptr %21, align 4, !tbaa !141
  %60 = sext i32 %59 to i64
  %61 = getelementptr inbounds double, ptr %58, i64 %60
  %62 = load double, ptr %61, align 8, !tbaa !194
  %63 = getelementptr inbounds nuw %"class.LightGBM::RegressionL2loss", ptr %23, i32 0, i32 4
  %64 = load ptr, ptr %63, align 8, !tbaa !189
  %65 = load i32, ptr %21, align 4, !tbaa !141
  %66 = sext i32 %65 to i64
  %67 = getelementptr inbounds float, ptr %64, i64 %66
  %68 = load float, ptr %67, align 4, !tbaa !210
  %69 = fpext float %68 to double
  %70 = fsub double %62, %69
  %71 = fptrunc double %70 to float
  store float %71, ptr %22, align 4, !tbaa !210
  %72 = load float, ptr %22, align 4, !tbaa !210
  %73 = fcmp oge float %72, 0.000000e+00
  br i1 %73, label %74, label %89

74:                                               ; preds = %54
  %75 = getelementptr inbounds nuw %"class.LightGBM::RegressionQuantileloss", ptr %23, i32 0, i32 1
  %76 = load float, ptr %75, align 4, !tbaa !75
  %77 = fsub float 1.000000e+00, %76
  %78 = getelementptr inbounds nuw %"class.LightGBM::RegressionL2loss", ptr %23, i32 0, i32 5
  %79 = load ptr, ptr %78, align 8, !tbaa !190
  %80 = load i32, ptr %21, align 4, !tbaa !141
  %81 = sext i32 %80 to i64
  %82 = getelementptr inbounds float, ptr %79, i64 %81
  %83 = load float, ptr %82, align 4, !tbaa !210
  %84 = fmul float %77, %83
  %85 = load ptr, ptr %25, align 8, !tbaa !192
  %86 = load i32, ptr %21, align 4, !tbaa !141
  %87 = sext i32 %86 to i64
  %88 = getelementptr inbounds float, ptr %85, i64 %87
  store float %84, ptr %88, align 4, !tbaa !210
  br label %104

89:                                               ; preds = %54
  %90 = getelementptr inbounds nuw %"class.LightGBM::RegressionQuantileloss", ptr %23, i32 0, i32 1
  %91 = load float, ptr %90, align 4, !tbaa !75
  %92 = fneg float %91
  %93 = getelementptr inbounds nuw %"class.LightGBM::RegressionL2loss", ptr %23, i32 0, i32 5
  %94 = load ptr, ptr %93, align 8, !tbaa !190
  %95 = load i32, ptr %21, align 4, !tbaa !141
  %96 = sext i32 %95 to i64
  %97 = getelementptr inbounds float, ptr %94, i64 %96
  %98 = load float, ptr %97, align 4, !tbaa !210
  %99 = fmul float %92, %98
  %100 = load ptr, ptr %25, align 8, !tbaa !192
  %101 = load i32, ptr %21, align 4, !tbaa !141
  %102 = sext i32 %101 to i64
  %103 = getelementptr inbounds float, ptr %100, i64 %102
  store float %99, ptr %103, align 4, !tbaa !210
  br label %104

104:                                              ; preds = %89, %74
  %105 = getelementptr inbounds nuw %"class.LightGBM::RegressionL2loss", ptr %23, i32 0, i32 5
  %106 = load ptr, ptr %105, align 8, !tbaa !190
  %107 = load i32, ptr %21, align 4, !tbaa !141
  %108 = sext i32 %107 to i64
  %109 = getelementptr inbounds float, ptr %106, i64 %108
  %110 = load float, ptr %109, align 4, !tbaa !210
  %111 = load ptr, ptr %26, align 8, !tbaa !192
  %112 = load i32, ptr %21, align 4, !tbaa !141
  %113 = sext i32 %112 to i64
  %114 = getelementptr inbounds float, ptr %111, i64 %113
  store float %110, ptr %114, align 4, !tbaa !210
  call void @llvm.lifetime.end.p0(i64 4, ptr %22) #3
  br label %115

115:                                              ; preds = %104
  br label %116

116:                                              ; preds = %115
  %117 = load i32, ptr %13, align 4, !tbaa !141
  %118 = add nsw i32 %117, 1
  store i32 %118, ptr %13, align 4, !tbaa !141
  br label %49

119:                                              ; preds = %53
  br label %120

120:                                              ; preds = %119
  %121 = load ptr, ptr %7, align 8
  %122 = load i32, ptr %121, align 4, !tbaa !141
  call void @__kmpc_for_static_fini(ptr @1, i32 %122)
  call void @llvm.lifetime.end.p0(i64 4, ptr %21) #3
  call void @llvm.lifetime.end.p0(i64 4, ptr %20) #3
  call void @llvm.lifetime.end.p0(i64 4, ptr %19) #3
  call void @llvm.lifetime.end.p0(i64 4, ptr %18) #3
  call void @llvm.lifetime.end.p0(i64 4, ptr %17) #3
  br label %123

123:                                              ; preds = %120, %6
  call void @llvm.lifetime.end.p0(i64 4, ptr %15) #3
  call void @llvm.lifetime.end.p0(i64 4, ptr %14) #3
  call void @llvm.lifetime.end.p0(i64 4, ptr %13) #3
  ret void
}