; Function Attrs: alwaysinline norecurse nounwind uwtable
define internal void @_ZNK8LightGBM22RegressionQuantileloss12GetGradientsEPKdPfS3_.omp_outlined.34(ptr noalias noundef readonly captures(none) %0, ptr noalias readnone captures(none) %1, ptr noundef readonly captures(none) %2, ptr noundef nonnull readonly align 8 captures(none) dereferenceable(8) %3, ptr noundef nonnull readonly align 8 captures(none) dereferenceable(8) %4, ptr noundef nonnull readonly align 8 captures(none) dereferenceable(8) %5) #14 {
  %7 = alloca i32, align 4
  %8 = alloca i32, align 4
  %9 = alloca i32, align 4
  %10 = alloca i32, align 4
  %11 = getelementptr inbounds nuw i8, ptr %2, i64 12
  %12 = load i32, ptr %11, align 4, !tbaa !147
  %13 = icmp sgt i32 %12, 0
  br i1 %13, label %14, label %48

14:                                               ; preds = %6
  %15 = add nsw i32 %12, -1
  call void @llvm.lifetime.start.p0(i64 4, ptr nonnull %7) #15
  store i32 0, ptr %7, align 4, !tbaa !127
  call void @llvm.lifetime.start.p0(i64 4, ptr nonnull %8) #15
  store i32 %15, ptr %8, align 4, !tbaa !127
  call void @llvm.lifetime.start.p0(i64 4, ptr nonnull %9) #15
  store i32 1, ptr %9, align 4, !tbaa !127
  call void @llvm.lifetime.start.p0(i64 4, ptr nonnull %10) #15
  store i32 0, ptr %10, align 4, !tbaa !127
  %16 = load i32, ptr %0, align 4, !tbaa !127
  call void @__kmpc_for_static_init_4(ptr nonnull @1, i32 %16, i32 34, ptr nonnull %10, ptr nonnull %7, ptr nonnull %8, ptr nonnull %9, i32 1, i32 1)
  %17 = load i32, ptr %8, align 4, !tbaa !127
  %18 = call i32 @llvm.smin.i32(i32 %17, i32 %15)
  store i32 %18, ptr %8, align 4, !tbaa !127
  %19 = load i32, ptr %7, align 4, !tbaa !127
  %.not22 = icmp sgt i32 %19, %18
  br i1 %.not22, label %._crit_edge, label %.lr.ph

.lr.ph:                                           ; preds = %14
  %20 = load ptr, ptr %3, align 8, !tbaa !152
  %21 = getelementptr inbounds nuw i8, ptr %2, i64 16
  %22 = load ptr, ptr %21, align 8, !tbaa !148
  %23 = getelementptr inbounds nuw i8, ptr %2, i64 60
  %24 = getelementptr inbounds nuw i8, ptr %2, i64 24
  %25 = load ptr, ptr %4, align 8
  %26 = load ptr, ptr %24, align 8, !tbaa !151
  %27 = load ptr, ptr %5, align 8, !tbaa !150
  %28 = sext i32 %19 to i64
  %29 = add nsw i32 %18, 1
  br label %30

30:                                               ; preds = %.lr.ph, %30
  %indvars.iv = phi i64 [ %28, %.lr.ph ], [ %indvars.iv.next, %30 ]
  %31 = getelementptr inbounds double, ptr %20, i64 %indvars.iv
  %32 = load double, ptr %31, align 8, !tbaa !153
  %33 = getelementptr inbounds float, ptr %22, i64 %indvars.iv
  %34 = load float, ptr %33, align 4, !tbaa !175
  %35 = fpext float %34 to double
  %36 = fsub double %32, %35
  %37 = fptrunc double %36 to float
  %38 = fcmp ult float %37, 0.000000e+00
  %39 = load float, ptr %23, align 4, !tbaa !65
  %40 = getelementptr inbounds float, ptr %26, i64 %indvars.iv
  %41 = load float, ptr %40, align 4, !tbaa !175
  %42 = fneg float %39
  %43 = fsub float 1.000000e+00, %39
  %.sink.v = select i1 %38, float %42, float %43
  %.sink = fmul float %41, %.sink.v
  %44 = getelementptr inbounds float, ptr %25, i64 %indvars.iv
  store float %.sink, ptr %44, align 4, !tbaa !175
  %45 = getelementptr inbounds float, ptr %26, i64 %indvars.iv
  %46 = load float, ptr %45, align 4, !tbaa !175
  %47 = getelementptr inbounds float, ptr %27, i64 %indvars.iv
  store float %46, ptr %47, align 4, !tbaa !175
  %indvars.iv.next = add nsw i64 %indvars.iv, 1
  %lftr.wideiv = trunc i64 %indvars.iv.next to i32
  %exitcond.not = icmp eq i32 %29, %lftr.wideiv
  br i1 %exitcond.not, label %._crit_edge, label %30

._crit_edge:                                      ; preds = %30, %14
  call void @__kmpc_for_static_fini(ptr nonnull @1, i32 %16)
  call void @llvm.lifetime.end.p0(i64 4, ptr nonnull %10) #15
  call void @llvm.lifetime.end.p0(i64 4, ptr nonnull %9) #15
  call void @llvm.lifetime.end.p0(i64 4, ptr nonnull %8) #15
  call void @llvm.lifetime.end.p0(i64 4, ptr nonnull %7) #15
  br label %48

48:                                               ; preds = %._crit_edge, %6
  ret void
}